; Function Attrs: inlinehint mustprogress nounwind uwtable
define internal fastcc void @_ZN7rocksdb12_GLOBAL__N_126UniversalCompactionBuilderD2Ev(ptr noundef nonnull align 8 dereferenceable(176) %0) unnamed_addr #7 align 2 personality ptr @__gxx_personality_v0 {
  %2 = getelementptr inbounds nuw i8, ptr %0, i64 128
  %3 = getelementptr inbounds nuw i8, ptr %0, i64 144
  %4 = load ptr, ptr %3, align 8, !tbaa !87
  invoke void @_ZNSt8_Rb_treeImSt4pairIKmmESt10_Select1stIS2_ESt4lessImESaIS2_EE8_M_eraseEPSt13_Rb_tree_nodeIS2_E(ptr noundef nonnull align 8 dereferenceable(48) %2, ptr noundef %4)
          to label %_ZNSt3mapImmSt4lessImESaISt4pairIKmmEEED2Ev.exit unwind label %5

5:                                                ; preds = %1
  %6 = landingpad { ptr, i32 }
          catch ptr null
  %7 = extractvalue { ptr, i32 } %6, 0
  tail call void @__clang_call_terminate(ptr %7) #28
  unreachable

_ZNSt3mapImmSt4lessImESaISt4pairIKmmEEED2Ev.exit: ; preds = %1
  %8 = getelementptr inbounds nuw i8, ptr %0, i64 24
  %.val = load ptr, ptr %8, align 8
  %.not.i.i.i = icmp eq ptr %.val, null
  br i1 %.not.i.i.i, label %_ZNSt6vectorIN7rocksdb12_GLOBAL__N_126UniversalCompactionBuilder9SortedRunESaIS3_EED2Ev.exit, label %9

9:                                                ; preds = %_ZNSt3mapImmSt4lessImESaISt4pairIKmmEEED2Ev.exit
  %10 = getelementptr inbounds nuw i8, ptr %0, i64 40
  %.val1 = load ptr, ptr %10, align 8
  %11 = ptrtoint ptr %.val1 to i64
  %12 = ptrtoint ptr %.val to i64
  %13 = sub i64 %11, %12
  tail call void @_ZdlPvm(ptr noundef nonnull %.val, i64 noundef %13) #26
  br label %_ZNSt6vectorIN7rocksdb12_GLOBAL__N_126UniversalCompactionBuilder9SortedRunESaIS3_EED2Ev.exit

_ZNSt6vectorIN7rocksdb12_GLOBAL__N_126UniversalCompactionBuilder9SortedRunESaIS3_EED2Ev.exit: ; preds = %_ZNSt3mapImmSt4lessImESaISt4pairIKmmEEED2Ev.exit, %9
  ret void
}